target datalayout = "e-m:e-p270:32:32-p271:32:32-p272:64:64-i64:64-i128:128-f80:128-n8:16:32:64-S128"
target triple = "x86_64-pc-linux-gnu"

%"class.absl::lts_20240722::Status" = type { i64 }
%"class.std::__shared_count" = type { ptr }
%"class.grpc_core::(anonymous namespace)::OutlierDetectionLb::SubchannelWrapper::WatcherWrapper" = type <{ %"class.grpc_core::SubchannelInterface::ConnectivityStateWatcherInterface", %"class.grpc_core::WeakRefCountedPtr", %"class.std::shared_ptr.355", %"class.std::optional.358", %"class.absl::lts_20240722::Status", i8, [7 x i8] }>
%"class.grpc_core::SubchannelInterface::ConnectivityStateWatcherInterface" = type { ptr }
%"class.grpc_core::WeakRefCountedPtr" = type { ptr }
%"class.std::shared_ptr.355" = type { %"class.std::__shared_ptr.356" }
%"class.std::__shared_ptr.356" = type { ptr, %"class.std::__shared_count" }
%"class.std::optional.358" = type { %"struct.std::_Optional_base.359" }
%"struct.std::_Optional_base.359" = type { %"struct.std::_Optional_payload.361" }
%"struct.std::_Optional_payload.361" = type { %"struct.std::_Optional_payload_base.base.363", [3 x i8] }
%"struct.std::_Optional_payload_base.base.363" = type <{ %"union.std::_Optional_payload_base<grpc_connectivity_state>::_Storage", i8 }>
%"union.std::_Optional_payload_base<grpc_connectivity_state>::_Storage" = type { i32 }

; Function Attrs: mustprogress nounwind uwtable
define linkonce_odr noundef ptr @_ZNKSt12__shared_ptrIN9grpc_core19SubchannelInterface33ConnectivityStateWatcherInterfaceELN9__gnu_cxx12_Lock_policyE2EE3getEv(ptr noundef nonnull align 8 dereferenceable(16) %0) #6 comdat align 2 {
  %2 = alloca ptr, align 8
  store ptr %0, ptr %2, align 8, !tbaa !1013
  %3 = load ptr, ptr %2, align 8
  %4 = getelementptr inbounds nuw %"class.std::__shared_ptr.356", ptr %3, i32 0, i32 0
  %5 = load ptr, ptr %4, align 8, !tbaa !1015
  ret ptr %5
}

; Function Attrs: mustprogress nounwind uwtable
define linkonce_odr noundef ptr @_ZNKSt19__shared_ptr_accessIN9grpc_core19SubchannelInterface33ConnectivityStateWatcherInterfaceELN9__gnu_cxx12_Lock_policyE2ELb0ELb0EE6_M_getEv(ptr noundef nonnull align 1 dereferenceable(1) %0) #6 comdat align 2 {
  %2 = alloca ptr, align 8
  store ptr %0, ptr %2, align 8, !tbaa !1001
  %3 = load ptr, ptr %2, align 8
  %4 = call noundef ptr @_ZNKSt12__shared_ptrIN9grpc_core19SubchannelInterface33ConnectivityStateWatcherInterfaceELN9__gnu_cxx12_Lock_policyE2EE3getEv(ptr noundef nonnull align 8 dereferenceable(16) %3) #3
  ret ptr %4
}

; Function Attrs: mustprogress nounwind uwtable
define linkonce_odr noundef ptr @_ZNKSt19__shared_ptr_accessIN9grpc_core19SubchannelInterface33ConnectivityStateWatcherInterfaceELN9__gnu_cxx12_Lock_policyE2ELb0ELb0EEptEv(ptr noundef nonnull align 1 dereferenceable(1) %0) #6 comdat align 2 {
  %2 = alloca ptr, align 8
  store ptr %0, ptr %2, align 8, !tbaa !1001
  %3 = load ptr, ptr %2, align 8
  %4 = call noundef ptr @_ZNKSt19__shared_ptr_accessIN9grpc_core19SubchannelInterface33ConnectivityStateWatcherInterfaceELN9__gnu_cxx12_Lock_policyE2ELb0ELb0EE6_M_getEv(ptr noundef nonnull align 1 dereferenceable(1) %3) #3
  ret ptr %4
}

; Function Attrs: mustprogress uwtable
define internal noundef ptr @_ZN9grpc_core12_GLOBAL__N_118OutlierDetectionLb17SubchannelWrapper14WatcherWrapper18interested_partiesEv(ptr noundef nonnull align 8 dereferenceable(56) %0) unnamed_addr #4 align 2 {
  %2 = alloca ptr, align 8
  store ptr %0, ptr %2, align 8, !tbaa !987
  %3 = load ptr, ptr %2, align 8
  %4 = getelementptr inbounds nuw %"class.grpc_core::(anonymous namespace)::OutlierDetectionLb::SubchannelWrapper::WatcherWrapper", ptr %3, i32 0, i32 2
  %5 = call noundef ptr @_ZNKSt19__shared_ptr_accessIN9grpc_core19SubchannelInterface33ConnectivityStateWatcherInterfaceELN9__gnu_cxx12_Lock_policyE2ELb0ELb0EEptEv(ptr noundef nonnull align 1 dereferenceable(1) %4) #3
  %6 = load ptr, ptr %5, align 8, !tbaa !151
  %7 = getelementptr inbounds ptr, ptr %6, i64 3
  %8 = load ptr, ptr %7, align 8
  %9 = call noundef ptr %8(ptr noundef nonnull align 8 dereferenceable(8) %5)
  ret ptr %9
}